target datalayout = "e-m:e-p270:32:32-p271:32:32-p272:64:64-i64:64-i128:128-f80:128-n8:16:32:64-S128"
target triple = "x86_64-pc-linux-gnu"

%struct.mbedtls_md_info_t = type { ptr, i32, i8, i8 }

@.str = private unnamed_addr constant [5 x i8] c"SHA1\00", align 1
@mbedtls_sha1_info = hidden constant %struct.mbedtls_md_info_t { ptr @.str, i32 2, i8 20, i8 64 }, align 8
@.str.1 = private unnamed_addr constant [7 x i8] c"SHA224\00", align 1
@mbedtls_sha224_info = hidden constant %struct.mbedtls_md_info_t { ptr @.str.1, i32 3, i8 28, i8 64 }, align 8
@.str.2 = private unnamed_addr constant [7 x i8] c"SHA256\00", align 1
@mbedtls_sha256_info = hidden constant %struct.mbedtls_md_info_t { ptr @.str.2, i32 4, i8 32, i8 64 }, align 8
@.str.3 = private unnamed_addr constant [4 x i8] c"SHA\00", align 1

; Function Attrs: mustprogress nounwind uwtable
define hidden ptr @mbedtls_md_info_from_type(i32 noundef %0) #0 {
  %2 = alloca ptr, align 8
  %3 = alloca i32, align 4
  store i32 %0, ptr %3, align 4, !tbaa !8
  %4 = load i32, ptr %3, align 4, !tbaa !8
  switch i32 %4, label %8 [
    i32 2, label %5
    i32 3, label %6
    i32 4, label %7
  ]

5:                                                ; preds = %1
  store ptr @mbedtls_sha1_info, ptr %2, align 8
  br label %9

6:                                                ; preds = %1
  store ptr @mbedtls_sha224_info, ptr %2, align 8
  br label %9

7:                                                ; preds = %1
  store ptr @mbedtls_sha256_info, ptr %2, align 8
  br label %9

8:                                                ; preds = %1
  store ptr null, ptr %2, align 8
  br label %9

9:                                                ; preds = %8, %7, %6, %5
  %10 = load ptr, ptr %2, align 8
  ret ptr %10
}

; Function Attrs: mustprogress uwtable
define hidden ptr @mbedtls_md_info_from_string(ptr noundef %0) #1 {
  %2 = alloca ptr, align 8
  %3 = alloca ptr, align 8
  store ptr %0, ptr %3, align 8, !tbaa !3
  %4 = load ptr, ptr %3, align 8, !tbaa !3
  %5 = icmp eq ptr null, %4
  br i1 %5, label %6, label %7

6:                                                ; preds = %1
  store ptr null, ptr %2, align 8
  br label %30

7:                                                ; preds = %1
  %8 = load ptr, ptr %3, align 8, !tbaa !3
  %9 = call i32 @strcmp(ptr noundef @.str, ptr noundef %8) #8
  %10 = icmp ne i32 %9, 0
  br i1 %10, label %11, label %15

11:                                               ; preds = %7
  %12 = load ptr, ptr %3, align 8, !tbaa !3
  %13 = call i32 @strcmp(ptr noundef @.str.3, ptr noundef %12) #8
  %14 = icmp ne i32 %13, 0
  br i1 %14, label %17, label %15

15:                                               ; preds = %11, %7
  %16 = call ptr @mbedtls_md_info_from_type(i32 noundef 2)
  store ptr %16, ptr %2, align 8
  br label %30

17:                                               ; preds = %11
  %18 = load ptr, ptr %3, align 8, !tbaa !3
  %19 = call i32 @strcmp(ptr noundef @.str.1, ptr noundef %18) #8
  %20 = icmp ne i32 %19, 0
  br i1 %20, label %23, label %21

21:                                               ; preds = %17
  %22 = call ptr @mbedtls_md_info_from_type(i32 noundef 3)
  store ptr %22, ptr %2, align 8
  br label %30

23:                                               ; preds = %17
  %24 = load ptr, ptr %3, align 8, !tbaa !3
  %25 = call i32 @strcmp(ptr noundef @.str.2, ptr noundef %24) #8
  %26 = icmp ne i32 %25, 0
  br i1 %26, label %29, label %27

27:                                               ; preds = %23
  %28 = call ptr @mbedtls_md_info_from_type(i32 noundef 4)
  store ptr %28, ptr %2, align 8
  br label %30

29:                                               ; preds = %23
  store ptr null, ptr %2, align 8
  br label %30

30:                                               ; preds = %29, %27, %21, %15, %6
  %31 = load ptr, ptr %2, align 8
  ret ptr %31
}