; Function Attrs: mustprogress nofree nounwind willreturn memory(argmem: read) uwtable
define hidden ptr @mbedtls_md_info_from_string(ptr noundef readonly captures(address_is_null) %0) local_unnamed_addr #1 {
  %2 = icmp eq ptr %0, null
  br i1 %2, label %11, label %3

3:                                                ; preds = %1
  %4 = tail call i32 @strcmp(ptr noundef nonnull dereferenceable(5) @.str, ptr noundef nonnull dereferenceable(1) %0) #11
  %.not = icmp eq i32 %4, 0
  br i1 %.not, label %11, label %5

5:                                                ; preds = %3
  %6 = tail call i32 @strcmp(ptr noundef nonnull dereferenceable(4) @.str.3, ptr noundef nonnull dereferenceable(1) %0) #11
  %.not7 = icmp eq i32 %6, 0
  br i1 %.not7, label %11, label %7

7:                                                ; preds = %5
  %8 = tail call i32 @strcmp(ptr noundef nonnull dereferenceable(7) @.str.1, ptr noundef nonnull dereferenceable(1) %0) #11
  %.not8 = icmp eq i32 %8, 0
  br i1 %.not8, label %11, label %9

9:                                                ; preds = %7
  %10 = tail call i32 @strcmp(ptr noundef nonnull dereferenceable(7) @.str.2, ptr noundef nonnull dereferenceable(1) %0) #11
  %.not9 = icmp eq i32 %10, 0
  %spec.select = select i1 %.not9, ptr @mbedtls_sha256_info, ptr null
  br label %11

11:                                               ; preds = %9, %7, %3, %5, %1
  %.0 = phi ptr [ null, %1 ], [ @mbedtls_sha1_info, %5 ], [ @mbedtls_sha1_info, %3 ], [ @mbedtls_sha224_info, %7 ], [ %spec.select, %9 ]
  ret ptr %.0
}